; Function Attrs: nounwind uwtable
define void @Gia_ManCounterExampleValueTest(ptr noundef captures(none) initializes((776, 784)) %0, ptr noundef readonly captures(none) %1) local_unnamed_addr #0 {
  %3 = getelementptr i8, ptr %0, i64 24
  %.val14 = load i32, ptr %3, align 8, !tbaa !38
  %4 = sdiv i32 %.val14, 2
  %5 = getelementptr i8, ptr %0, i64 32
  %.val = load ptr, ptr %5, align 8, !tbaa !28
  %6 = sext i32 %4 to i64
  %7 = getelementptr inbounds %struct.Gia_Obj_t_, ptr %.val, i64 %6
  %8 = getelementptr inbounds nuw i8, ptr %1, i64 4
  %9 = load i32, ptr %8, align 4, !tbaa !35
  %10 = tail call i32 @llvm.smax.i32(i32 %9, i32 1)
  %11 = add nsw i32 %10, -1
  %12 = load i32, ptr %1, align 4, !tbaa !44
  %13 = tail call i32 (ptr, ...) @printf(ptr noundef nonnull dereferenceable(1) @.str, i32 noundef %12, i32 noundef %9)
  tail call void @Gia_ManCounterExampleValueStart(ptr noundef %0, ptr noundef nonnull %1)
  %.val16 = load ptr, ptr %5, align 8, !tbaa !28
  %14 = ptrtoint ptr %7 to i64
  %15 = ptrtoint ptr %.val16 to i64
  %16 = sub i64 %14, %15
  %17 = sdiv exact i64 %16, 12
  %18 = trunc i64 %17 to i32
  %19 = getelementptr inbounds nuw i8, ptr %0, i64 776
  %20 = load ptr, ptr %19, align 8, !tbaa !60
  %.val.i = load i32, ptr %3, align 8, !tbaa !38
  %21 = mul nsw i32 %.val.i, %11
  %22 = add nsw i32 %21, %18
  %23 = ashr i32 %22, 5
  %24 = sext i32 %23 to i64
  %25 = getelementptr inbounds i32, ptr %20, i64 %24
  %26 = load i32, ptr %25, align 4, !tbaa !32
  %27 = and i32 %22, 31
  %28 = lshr i32 %26, %27
  %29 = and i32 %28, 1
  %30 = tail call i32 (ptr, ...) @printf(ptr noundef nonnull dereferenceable(1) @.str.1, i32 noundef %18, i32 noundef %11, i32 noundef %29)
  %31 = load ptr, ptr %19, align 8, !tbaa !60
  %.not.i = icmp eq ptr %31, null
  br i1 %.not.i, label %Gia_ManCounterExampleValueStop.exit, label %32

32:                                               ; preds = %2
  tail call void @free(ptr noundef nonnull %31) #21
  br label %Gia_ManCounterExampleValueStop.exit

Gia_ManCounterExampleValueStop.exit:              ; preds = %2, %32
  store ptr null, ptr %19, align 8, !tbaa !60
  ret void
}